; ModuleID = '44/208.c'
source_filename = "44/208.c"
target datalayout = "e-m:e-p270:32:32-p271:32:32-p272:64:64-i64:64-f80:128-n8:16:32:64-S128"
target triple = "x86_64-pc-linux-gnu"

@.str = private unnamed_addr constant [3 x i8] c"%d\00", align 1
@.str.1 = private unnamed_addr constant [4 x i8] c"%d\0A\00", align 1

; Function Attrs: noinline nounwind uwtable
define dso_local i32 @reverse(i32 %0) #0 {
  %2 = alloca i32, align 4
  %3 = alloca i32, align 4
  %4 = alloca i32, align 4
  %5 = alloca i32, align 4
  store i32 %0, i32* %3, align 4
  store i32 0, i32* %4, align 4
  %6 = load i32, i32* %3, align 4
  %7 = icmp sge i32 %6, 0
  br i1 %7, label %8, label %23

8:                                                ; preds = %1
  br label %9

9:                                                ; preds = %12, %8
  %10 = load i32, i32* %3, align 4
  %11 = icmp ne i32 %10, 0
  br i1 %11, label %12, label %21

12:                                               ; preds = %9
  %13 = load i32, i32* %3, align 4
  %14 = srem i32 %13, 10
  store i32 %14, i32* %5, align 4
  %15 = load i32, i32* %4, align 4
  %16 = mul nsw i32 %15, 10
  %17 = load i32, i32* %5, align 4
  %18 = add nsw i32 %16, %17
  store i32 %18, i32* %4, align 4
  %19 = load i32, i32* %3, align 4
  %20 = sdiv i32 %19, 10
  store i32 %20, i32* %3, align 4
  br label %9

21:                                               ; preds = %9
  %22 = load i32, i32* %4, align 4
  store i32 %22, i32* %2, align 4
  br label %42

23:                                               ; preds = %1
  %24 = load i32, i32* %3, align 4
  %25 = sub nsw i32 0, %24
  store i32 %25, i32* %3, align 4
  br label %26

26:                                               ; preds = %29, %23
  %27 = load i32, i32* %3, align 4
  %28 = icmp ne i32 %27, 0
  br i1 %28, label %29, label %38

29:                                               ; preds = %26
  %30 = load i32, i32* %3, align 4
  %31 = srem i32 %30, 10
  store i32 %31, i32* %5, align 4
  %32 = load i32, i32* %4, align 4
  %33 = mul nsw i32 %32, 10
  %34 = load i32, i32* %5, align 4
  %35 = add nsw i32 %33, %34
  store i32 %35, i32* %4, align 4
  %36 = load i32, i32* %3, align 4
  %37 = sdiv i32 %36, 10
  store i32 %37, i32* %3, align 4
  br label %26

38:                                               ; preds = %26
  %39 = load i32, i32* %4, align 4
  %40 = sub nsw i32 0, %39
  store i32 %40, i32* %4, align 4
  %41 = load i32, i32* %4, align 4
  store i32 %41, i32* %2, align 4
  br label %42

42:                                               ; preds = %38, %21
  %43 = load i32, i32* %2, align 4
  ret i32 %43
}

; Function Attrs: noinline nounwind uwtable
define dso_local i32 @main() #0 {
  %1 = alloca i32, align 4
  %2 = alloca i32, align 4
  %3 = alloca i32, align 4
  store i32 0, i32* %1, align 4
  store i32 1, i32* %3, align 4
  br label %4

4:                                                ; preds = %13, %0
  %5 = load i32, i32* %3, align 4
  %6 = icmp sle i32 %5, 6
  br i1 %6, label %7, label %16

7:                                                ; preds = %4
  %8 = call i32 (i8*, ...) @__isoc99_scanf(i8* getelementptr inbounds ([3 x i8], [3 x i8]* @.str, i64 0, i64 0), i32* %2)
  %9 = load i32, i32* %2, align 4
  %10 = call i32 @reverse(i32 %9)
  store i32 %10, i32* %2, align 4
  %11 = load i32, i32* %2, align 4
  %12 = call i32 (i8*, ...) @printf(i8* getelementptr inbounds ([4 x i8], [4 x i8]* @.str.1, i64 0, i64 0), i32 %11)
  br label %13

13:                                               ; preds = %7
  %14 = load i32, i32* %3, align 4
  %15 = add nsw i32 %14, 1
  store i32 %15, i32* %3, align 4
  br label %4

16:                                               ; preds = %4
  %17 = load i32, i32* %1, align 4
  ret i32 %17
}

declare dso_local i32 @__isoc99_scanf(i8*, ...) #1

declare dso_local i32 @printf(i8*, ...) #1


!llvm.module.flags = !{!0}
!llvm.ident = !{!1}

!0 = !{i32 1, !"wchar_size", i32 4}
!1 = !{!"clang version 10.0.0-4ubuntu1 "}
